(lp1
F-16407.113153061389
aF-16406.670762268226
aF-16406.55498666854
aF-16406.566269257095
aF-16406.565771288748
aF-16406.566384701393
aF-16406.566064763534
aF-16406.565868909591
aF-16406.564529973391
aF-16406.681927303598
a.